target datalayout = "e-m:e-p270:32:32-p271:32:32-p272:64:64-i64:64-i128:128-f80:128-n8:16:32:64-S128"
target triple = "x86_64-pc-linux-gnu"

; Function Attrs: mustprogress nounwind uwtable
define internal noundef i64 @_ZN11duckdb_zstdL13HUF_getNbBitsEm(i64 noundef %0) #0 {
  %2 = alloca i64, align 8
  store i64 %0, ptr %2, align 8, !tbaa !9
  %3 = load i64, ptr %2, align 8, !tbaa !9
  %4 = and i64 %3, 255
  ret i64 %4
}

; Function Attrs: mustprogress uwtable
define noundef i64 @_ZN11duckdb_zstd26HUF_estimateCompressedSizeEPKmPKjj(ptr noundef %0, ptr noundef %1, i32 noundef %2) #2 {
  %4 = alloca ptr, align 8
  %5 = alloca ptr, align 8
  %6 = alloca i32, align 4
  %7 = alloca ptr, align 8
  %8 = alloca i64, align 8
  %9 = alloca i32, align 4
  store ptr %0, ptr %4, align 8, !tbaa !3
  store ptr %1, ptr %5, align 8, !tbaa !20
  store i32 %2, ptr %6, align 4, !tbaa !11
  call void @llvm.lifetime.start.p0(i64 8, ptr %7) #12
  %10 = load ptr, ptr %4, align 8, !tbaa !3
  %11 = getelementptr inbounds i64, ptr %10, i64 1
  store ptr %11, ptr %7, align 8, !tbaa !3
  call void @llvm.lifetime.start.p0(i64 8, ptr %8) #12
  store i64 0, ptr %8, align 8, !tbaa !9
  call void @llvm.lifetime.start.p0(i64 4, ptr %9) #12
  store i32 0, ptr %9, align 4, !tbaa !11
  br label %12

12:                                               ; preds = %32, %3
  %13 = load i32, ptr %9, align 4, !tbaa !11
  %14 = load i32, ptr %6, align 4, !tbaa !11
  %15 = icmp sle i32 %13, %14
  br i1 %15, label %16, label %35

16:                                               ; preds = %12
  %17 = load ptr, ptr %7, align 8, !tbaa !3
  %18 = load i32, ptr %9, align 4, !tbaa !11
  %19 = sext i32 %18 to i64
  %20 = getelementptr inbounds i64, ptr %17, i64 %19
  %21 = load i64, ptr %20, align 8, !tbaa !9
  %22 = call noundef i64 @_ZN11duckdb_zstdL13HUF_getNbBitsEm(i64 noundef %21)
  %23 = load ptr, ptr %5, align 8, !tbaa !20
  %24 = load i32, ptr %9, align 4, !tbaa !11
  %25 = sext i32 %24 to i64
  %26 = getelementptr inbounds i32, ptr %23, i64 %25
  %27 = load i32, ptr %26, align 4, !tbaa !11
  %28 = zext i32 %27 to i64
  %29 = mul i64 %22, %28
  %30 = load i64, ptr %8, align 8, !tbaa !9
  %31 = add i64 %30, %29
  store i64 %31, ptr %8, align 8, !tbaa !9
  br label %32

32:                                               ; preds = %16
  %33 = load i32, ptr %9, align 4, !tbaa !11
  %34 = add nsw i32 %33, 1
  store i32 %34, ptr %9, align 4, !tbaa !11
  br label %12, !llvm.loop !63

35:                                               ; preds = %12
  %36 = load i64, ptr %8, align 8, !tbaa !9
  %37 = lshr i64 %36, 3
  call void @llvm.lifetime.end.p0(i64 4, ptr %9) #12
  call void @llvm.lifetime.end.p0(i64 8, ptr %8) #12
  call void @llvm.lifetime.end.p0(i64 8, ptr %7) #12
  ret i64 %37
}