; Function Attrs: mustprogress nofree norecurse nosync nounwind willreturn memory(argmem: read) uwtable
define noundef range(i64 0, 2305843009213693952) i64 @_ZN11duckdb_zstd26HUF_estimateCompressedSizeEPKmPKjj(ptr noundef readonly captures(none) %0, ptr noundef readonly captures(none) %1, i32 noundef %2) local_unnamed_addr #0 {
  %4 = getelementptr inbounds nuw i8, ptr %0, i64 8
  %.not10 = icmp slt i32 %2, 0
  br i1 %.not10, label %._crit_edge, label %.lr.ph.preheader

.lr.ph.preheader:                                 ; preds = %3
  %5 = add nuw i32 %2, 1
  %wide.trip.count = zext i32 %5 to i64
  br label %.lr.ph

.lr.ph:                                           ; preds = %.lr.ph.preheader, %.lr.ph
  %indvars.iv = phi i64 [ 0, %.lr.ph.preheader ], [ %indvars.iv.next, %.lr.ph ]
  %.0911 = phi i64 [ 0, %.lr.ph.preheader ], [ %13, %.lr.ph ]
  %6 = getelementptr inbounds nuw i64, ptr %4, i64 %indvars.iv
  %7 = load i64, ptr %6, align 8, !tbaa !8
  %8 = and i64 %7, 255
  %9 = getelementptr inbounds nuw i32, ptr %1, i64 %indvars.iv
  %10 = load i32, ptr %9, align 4, !tbaa !11
  %11 = zext i32 %10 to i64
  %12 = mul nuw nsw i64 %8, %11
  %13 = add i64 %12, %.0911
  %indvars.iv.next = add nuw nsw i64 %indvars.iv, 1
  %exitcond.not = icmp eq i64 %indvars.iv.next, %wide.trip.count
  br i1 %exitcond.not, label %._crit_edge.loopexit, label %.lr.ph, !llvm.loop !50

._crit_edge.loopexit:                             ; preds = %.lr.ph
  %14 = lshr i64 %13, 3
  br label %._crit_edge

._crit_edge:                                      ; preds = %._crit_edge.loopexit, %3
  %.09.lcssa = phi i64 [ 0, %3 ], [ %14, %._crit_edge.loopexit ]
  ret i64 %.09.lcssa
}